(dp1
S'lyrics_done'
p2
I01
sS'tags_done'
p3
I01
sS'lyrics'
p4
S"Custard Pie lyrics\nDrop down, baby, let your daddy see.\nDrop down, mama, just dream of me\nWell, my mama allow me to fool around all night long\nWell, I may look like I'm crazy, I should know right from wrong\nSee me comin', throw your man out the door\nAin't no stranger, been this way before\nSee me comin', mama, throw your man out the door\nI ain't no stranger, I been this way before.\nPut on your night shirt and your morning gown\nYou know by night I'm gonna shake 'em down\nPut on your night shirt Mama, and your morning gown\nWell, you know by night I'm gonna shake 'em down\nYour custard pie, yeah, sweet and nice\nWhen you cut it, mama, save me a slice\nYour custard pie, I declare, it's sweet and nice\nI Like your custard pie\nWhen you cut it, mama... mama, please save me a slice.\nJust wanna piece of your custard pie.\nDrop down\nthese lyrics are last corrected by Richard"
p5
sS'tags'
p6
(dp7
S'album'
p8
VPhysical Graffiti (Disc 1)
p9
sS'comment'
p10
S''
sS'performer'
p11
VLed Zeppelin
p12
sS'title'
p13
VCustard Pie
p14
sS'track'
p15
V1
sS'year'
p16
V1975
p17
sS'genre'
p18
S'Blues'
p19
ss.