(dp1
S'tags_done'
p2
I01
sS'pics_done'
p3
I01
sS'tags'
p4
(dp5
S'album'
p6
VPhysical Graffiti (Disc 2)
p7
sS'comment'
p8
S''
sS'performer'
p9
VLed Zeppelin
p10
sS'title'
p11
VBron-Ya-Aur
p12
sS'track'
p13
V2
sS'year'
p14
V1975
p15
sS'genre'
p16
S'Blues'
p17
ss.