(dp1
S'tags_done'
p2
I01
sS'tags'
p3
(dp4
S'album'
p5
VPhysical Graffiti (Disc 2)
p6
sS'comment'
p7
S''
sS'performer'
p8
VLed Zeppelin
p9
sS'title'
p10
VStick Again
p11
sS'track'
p12
V9
sS'year'
p13
V1975
p14
sS'genre'
p15
S'Blues'
p16
ss.